#include <math.h>
#include <stdio.h>
#include <stdlib.h>
#include <string.h>

int main(){
int n,i,k,l,ha,li,x,s;
scanf("%d",&n);
for(i=0;i<n;i++){
	s=0;
	scanf("%d %d",&ha,&li);
	for(l=0;l<ha;l++){
		for(k=0;k<li;k++){
			scanf("%d",&x);
			if(l==0||l==(ha-1)||(k==0&&l!=0&&l!=(ha-1))||(k==(li-1)&&l!=0&&l!=(ha-1))){
				s=s+x;
		}
	}
	}
printf("%d\n",s);
}
return 0;
}
